; Function Attrs: nounwind uwtable
define internal range(i32 0, 65536) i32 @fold_simplify_intmul_k32(ptr noundef %0) #0 {
  %2 = getelementptr inbounds nuw i8, ptr %0, i64 208
  %3 = load i32, ptr %2, align 8, !tbaa !28
  %4 = icmp sgt i32 %3, -1
  br i1 %4, label %5, label %22

5:                                                ; preds = %1
  switch i32 %3, label %12 [
    i32 0, label %6
    i32 1, label %9
  ]

6:                                                ; preds = %5
  %7 = getelementptr inbounds nuw i8, ptr %0, i64 186
  %8 = load i16, ptr %7, align 2, !tbaa !28
  br label %simplify_intmul_k.exit

9:                                                ; preds = %5
  %10 = getelementptr inbounds nuw i8, ptr %0, i64 184
  %11 = load i16, ptr %10, align 8, !tbaa !28
  br label %simplify_intmul_k.exit

12:                                               ; preds = %5
  %13 = tail call range(i32 1, 32) i32 @llvm.ctpop.i32(i32 range(i32 0, -2147483648) %3)
  %14 = icmp samesign ult i32 %13, 2
  br i1 %14, label %15, label %simplify_intmul_k.exit

15:                                               ; preds = %12
  %16 = getelementptr inbounds nuw i8, ptr %0, i64 189
  store i8 36, ptr %16, align 1, !tbaa !28
  %17 = tail call range(i32 1, 33) i32 @llvm.ctlz.i32(i32 range(i32 0, -2147483648) %3, i1 true)
  %18 = xor i32 %17, 31
  %19 = tail call i32 @lj_ir_kint(ptr noundef nonnull %0, i32 noundef %18) #12
  %20 = trunc i32 %19 to i16
  %21 = getelementptr inbounds nuw i8, ptr %0, i64 186
  store i16 %20, ptr %21, align 2, !tbaa !28
  br label %simplify_intmul_k.exit

simplify_intmul_k.exit:                           ; preds = %6, %9, %12, %15
  %.0.shrunk.i = phi i16 [ %8, %6 ], [ %11, %9 ], [ 1, %15 ], [ 0, %12 ]
  %.0.i = zext i16 %.0.shrunk.i to i32
  br label %22

22:                                               ; preds = %1, %simplify_intmul_k.exit
  %.0 = phi i32 [ %.0.i, %simplify_intmul_k.exit ], [ 0, %1 ]
  ret i32 %.0
}